target datalayout = "e-m:e-p270:32:32-p271:32:32-p272:64:64-i64:64-i128:128-f80:128-n8:16:32:64-S128"
target triple = "x86_64-unknown-linux-gnu"

%struct.HashMap = type { ptr, i32, i32 }
%struct.Scope = type { ptr, %struct.HashMap, %struct.HashMap }
%struct.Node = type { i32, ptr, ptr, ptr, ptr, ptr, ptr, ptr, ptr, ptr, ptr, ptr, ptr, ptr, ptr, ptr, ptr, i8, ptr, ptr, ptr, ptr, ptr, ptr, i64, i64, ptr, ptr, ptr, ptr, ptr, ptr, ptr, i64, x86_fp80 }
%struct.Token = type { i32, ptr, i64, x86_fp80, ptr, i32, ptr, ptr, ptr, ptr, i32, i32, i8, i8, ptr, ptr }
%struct.VarScope = type { ptr, ptr, ptr, i32 }

@.str.23 = private unnamed_addr constant [2 x i8] c"(\00", align 1
@.str.24 = private unnamed_addr constant [2 x i8] c")\00", align 1
@.str.25 = private unnamed_addr constant [2 x i8] c"{\00", align 1
@is_typename.map = internal global %struct.HashMap zeroinitializer, align 8
@scope = internal global ptr @.compoundliteral, align 8

; Function Attrs: nounwind uwtable
define internal ptr @find_var(ptr noundef %tok) #0 {
entry:
  %retval = alloca ptr, align 8
  %tok.addr = alloca ptr, align 8
  %sc = alloca ptr, align 8
  %sc2 = alloca ptr, align 8
  store ptr %tok, ptr %tok.addr, align 8
  %0 = load ptr, ptr @scope, align 8
  store ptr %0, ptr %sc, align 8
  br label %for.cond

for.cond:                                         ; preds = %for.inc, %entry
  %1 = load ptr, ptr %sc, align 8
  %tobool = icmp ne ptr %1, null
  br i1 %tobool, label %for.body, label %for.end

for.body:                                         ; preds = %for.cond
  %2 = load ptr, ptr %sc, align 8
  %vars = getelementptr inbounds %struct.Scope, ptr %2, i32 0, i32 1
  %3 = load ptr, ptr %tok.addr, align 8
  %loc = getelementptr inbounds %struct.Token, ptr %3, i32 0, i32 4
  %4 = load ptr, ptr %loc, align 16
  %5 = load ptr, ptr %tok.addr, align 8
  %len = getelementptr inbounds %struct.Token, ptr %5, i32 0, i32 5
  %6 = load i32, ptr %len, align 8
  %call = call ptr @hashmap_get2(ptr noundef %vars, ptr noundef %4, i32 noundef %6)
  store ptr %call, ptr %sc2, align 8
  %7 = load ptr, ptr %sc2, align 8
  %tobool1 = icmp ne ptr %7, null
  br i1 %tobool1, label %if.then, label %if.end

if.then:                                          ; preds = %for.body
  %8 = load ptr, ptr %sc2, align 8
  store ptr %8, ptr %retval, align 8
  br label %return

if.end:                                           ; preds = %for.body
  br label %for.inc

for.inc:                                          ; preds = %if.end
  %9 = load ptr, ptr %sc, align 8
  %next = getelementptr inbounds %struct.Scope, ptr %9, i32 0, i32 0
  %10 = load ptr, ptr %next, align 8
  store ptr %10, ptr %sc, align 8
  br label %for.cond, !llvm.loop !22

for.end:                                          ; preds = %for.cond
  store ptr null, ptr %retval, align 8
  br label %return

return:                                           ; preds = %for.end, %if.then
  %11 = load ptr, ptr %retval, align 8
  ret ptr %11
}

; Function Attrs: nounwind uwtable
define internal ptr @find_typedef(ptr noundef %tok) #0 {
entry:
  %retval = alloca ptr, align 8
  %tok.addr = alloca ptr, align 8
  %sc = alloca ptr, align 8
  store ptr %tok, ptr %tok.addr, align 8
  %0 = load ptr, ptr %tok.addr, align 8
  %kind = getelementptr inbounds %struct.Token, ptr %0, i32 0, i32 0
  %1 = load i32, ptr %kind, align 16
  %cmp = icmp eq i32 %1, 0
  br i1 %cmp, label %if.then, label %if.end2

if.then:                                          ; preds = %entry
  %2 = load ptr, ptr %tok.addr, align 8
  %call = call ptr @find_var(ptr noundef %2)
  store ptr %call, ptr %sc, align 8
  %3 = load ptr, ptr %sc, align 8
  %tobool = icmp ne ptr %3, null
  br i1 %tobool, label %if.then1, label %if.end

if.then1:                                         ; preds = %if.then
  %4 = load ptr, ptr %sc, align 8
  %type_def = getelementptr inbounds %struct.VarScope, ptr %4, i32 0, i32 1
  %5 = load ptr, ptr %type_def, align 8
  store ptr %5, ptr %retval, align 8
  br label %return

if.end:                                           ; preds = %if.then
  br label %if.end2

if.end2:                                          ; preds = %if.end, %entry
  store ptr null, ptr %retval, align 8
  br label %return

return:                                           ; preds = %if.end2, %if.then1
  %6 = load ptr, ptr %retval, align 8
  ret ptr %6
}

; Function Attrs: nounwind uwtable
define dso_local ptr @new_cast(ptr noundef %expr, ptr noundef %ty) #0 {
entry:
  %expr.addr = alloca ptr, align 8
  %ty.addr = alloca ptr, align 8
  %node = alloca ptr, align 8
  store ptr %expr, ptr %expr.addr, align 8
  store ptr %ty, ptr %ty.addr, align 8
  %0 = load ptr, ptr %expr.addr, align 8
  call void @add_type(ptr noundef %0)
  %call = call noalias ptr @calloc(i64 noundef 1, i64 noundef 288) #8
  store ptr %call, ptr %node, align 8
  %1 = load ptr, ptr %node, align 8
  %kind = getelementptr inbounds %struct.Node, ptr %1, i32 0, i32 0
  store i32 43, ptr %kind, align 16
  %2 = load ptr, ptr %expr.addr, align 8
  %tok = getelementptr inbounds %struct.Node, ptr %2, i32 0, i32 3
  %3 = load ptr, ptr %tok, align 8
  %4 = load ptr, ptr %node, align 8
  %tok1 = getelementptr inbounds %struct.Node, ptr %4, i32 0, i32 3
  store ptr %3, ptr %tok1, align 8
  %5 = load ptr, ptr %expr.addr, align 8
  %6 = load ptr, ptr %node, align 8
  %lhs = getelementptr inbounds %struct.Node, ptr %6, i32 0, i32 4
  store ptr %5, ptr %lhs, align 16
  %7 = load ptr, ptr %ty.addr, align 8
  %call2 = call ptr @copy_type(ptr noundef %7)
  %8 = load ptr, ptr %node, align 8
  %ty3 = getelementptr inbounds %struct.Node, ptr %8, i32 0, i32 2
  store ptr %call2, ptr %ty3, align 16
  %9 = load ptr, ptr %node, align 8
  ret ptr %9
}

; Function Attrs: nounwind uwtable
define internal ptr @typename(ptr noundef %rest, ptr noundef %tok) #0 {
entry:
  %rest.addr = alloca ptr, align 8
  %tok.addr = alloca ptr, align 8
  %ty = alloca ptr, align 8
  store ptr %rest, ptr %rest.addr, align 8
  store ptr %tok, ptr %tok.addr, align 8
  %0 = load ptr, ptr %tok.addr, align 8
  %call = call ptr @declspec(ptr noundef %tok.addr, ptr noundef %0, ptr noundef null)
  store ptr %call, ptr %ty, align 8
  %1 = load ptr, ptr %rest.addr, align 8
  %2 = load ptr, ptr %tok.addr, align 8
  %3 = load ptr, ptr %ty, align 8
  %call1 = call ptr @abstract_declarator(ptr noundef %1, ptr noundef %2, ptr noundef %3)
  ret ptr %call1
}

; Function Attrs: nounwind uwtable
define internal zeroext i1 @is_typename(ptr noundef %tok) #0 {
entry:
  %tok.addr = alloca ptr, align 8
  %i = alloca i32, align 4
  store ptr %tok, ptr %tok.addr, align 8
  %0 = load i32, ptr getelementptr inbounds (%struct.HashMap, ptr @is_typename.map, i32 0, i32 1), align 8
  %cmp = icmp eq i32 %0, 0
  br i1 %cmp, label %if.then, label %if.end

if.then:                                          ; preds = %entry
  store i32 0, ptr %i, align 4
  br label %for.cond

for.cond:                                         ; preds = %for.inc, %if.then
  %1 = load i32, ptr %i, align 4
  %conv = sext i32 %1 to i64
  %cmp1 = icmp ult i64 %conv, 30
  br i1 %cmp1, label %for.body, label %for.end

for.body:                                         ; preds = %for.cond
  %2 = load i32, ptr %i, align 4
  %idxprom = sext i32 %2 to i64
  %arrayidx = getelementptr inbounds [30 x ptr], ptr @is_typename.kw, i64 0, i64 %idxprom
  %3 = load ptr, ptr %arrayidx, align 8
  call void @hashmap_put(ptr noundef @is_typename.map, ptr noundef %3, ptr noundef inttoptr (i64 1 to ptr))
  br label %for.inc

for.inc:                                          ; preds = %for.body
  %4 = load i32, ptr %i, align 4
  %inc = add nsw i32 %4, 1
  store i32 %inc, ptr %i, align 4
  br label %for.cond, !llvm.loop !21

for.end:                                          ; preds = %for.cond
  br label %if.end

if.end:                                           ; preds = %for.end, %entry
  %5 = load ptr, ptr %tok.addr, align 8
  %loc = getelementptr inbounds %struct.Token, ptr %5, i32 0, i32 4
  %6 = load ptr, ptr %loc, align 16
  %7 = load ptr, ptr %tok.addr, align 8
  %len = getelementptr inbounds %struct.Token, ptr %7, i32 0, i32 5
  %8 = load i32, ptr %len, align 8
  %call = call ptr @hashmap_get2(ptr noundef @is_typename.map, ptr noundef %6, i32 noundef %8)
  %tobool = icmp ne ptr %call, null
  br i1 %tobool, label %lor.end, label %lor.rhs

lor.rhs:                                          ; preds = %if.end
  %9 = load ptr, ptr %tok.addr, align 8
  %call3 = call ptr @find_typedef(ptr noundef %9)
  %tobool4 = icmp ne ptr %call3, null
  br label %lor.end

lor.end:                                          ; preds = %lor.rhs, %if.end
  %10 = phi i1 [ true, %if.end ], [ %tobool4, %lor.rhs ]
  ret i1 %10
}

; Function Attrs: nounwind uwtable
define internal ptr @cast(ptr noundef %rest, ptr noundef %tok) #0 {
entry:
  %retval = alloca ptr, align 8
  %rest.addr = alloca ptr, align 8
  %tok.addr = alloca ptr, align 8
  %start = alloca ptr, align 8
  %ty = alloca ptr, align 8
  %node = alloca ptr, align 8
  store ptr %rest, ptr %rest.addr, align 8
  store ptr %tok, ptr %tok.addr, align 8
  %0 = load ptr, ptr %tok.addr, align 8
  %call = call zeroext i1 @equal(ptr noundef %0, ptr noundef @.str.23)
  br i1 %call, label %land.lhs.true, label %if.end11

land.lhs.true:                                    ; preds = %entry
  %1 = load ptr, ptr %tok.addr, align 8
  %next = getelementptr inbounds %struct.Token, ptr %1, i32 0, i32 1
  %2 = load ptr, ptr %next, align 8
  %call1 = call zeroext i1 @is_typename(ptr noundef %2)
  br i1 %call1, label %if.then, label %if.end11

if.then:                                          ; preds = %land.lhs.true
  %3 = load ptr, ptr %tok.addr, align 8
  store ptr %3, ptr %start, align 8
  %4 = load ptr, ptr %tok.addr, align 8
  %next2 = getelementptr inbounds %struct.Token, ptr %4, i32 0, i32 1
  %5 = load ptr, ptr %next2, align 8
  %call3 = call ptr @typename(ptr noundef %tok.addr, ptr noundef %5)
  store ptr %call3, ptr %ty, align 8
  %6 = load ptr, ptr %tok.addr, align 8
  %call4 = call ptr @skip(ptr noundef %6, ptr noundef @.str.24)
  store ptr %call4, ptr %tok.addr, align 8
  %7 = load ptr, ptr %tok.addr, align 8
  %call5 = call zeroext i1 @equal(ptr noundef %7, ptr noundef @.str.25)
  br i1 %call5, label %if.then6, label %if.end

if.then6:                                         ; preds = %if.then
  %8 = load ptr, ptr %rest.addr, align 8
  %9 = load ptr, ptr %start, align 8
  %call7 = call ptr @unary(ptr noundef %8, ptr noundef %9)
  store ptr %call7, ptr %retval, align 8
  br label %return

if.end:                                           ; preds = %if.then
  %10 = load ptr, ptr %rest.addr, align 8
  %11 = load ptr, ptr %tok.addr, align 8
  %call8 = call ptr @cast(ptr noundef %10, ptr noundef %11)
  %12 = load ptr, ptr %ty, align 8
  %call9 = call ptr @new_cast(ptr noundef %call8, ptr noundef %12)
  store ptr %call9, ptr %node, align 8
  %13 = load ptr, ptr %start, align 8
  %14 = load ptr, ptr %node, align 8
  %tok10 = getelementptr inbounds %struct.Node, ptr %14, i32 0, i32 3
  store ptr %13, ptr %tok10, align 8
  %15 = load ptr, ptr %node, align 8
  store ptr %15, ptr %retval, align 8
  br label %return

if.end11:                                         ; preds = %land.lhs.true, %entry
  %16 = load ptr, ptr %rest.addr, align 8
  %17 = load ptr, ptr %tok.addr, align 8
  %call12 = call ptr @unary(ptr noundef %16, ptr noundef %17)
  store ptr %call12, ptr %retval, align 8
  br label %return

return:                                           ; preds = %if.end11, %if.end, %if.then6
  %18 = load ptr, ptr %retval, align 8
  ret ptr %18
}