; Function Attrs: nounwind uwtable
define internal fastcc ptr @cast(ptr noundef %rest, ptr noundef %tok) unnamed_addr #0 {
entry:
  %tok.addr.i = alloca ptr, align 8
  %tok.addr = alloca ptr, align 8
  store ptr %tok, ptr %tok.addr, align 8
  %call = tail call zeroext i1 @equal(ptr noundef %tok, ptr noundef nonnull @.str.23) #13
  br i1 %call, label %land.lhs.true, label %if.end11

land.lhs.true:                                    ; preds = %entry
  %next = getelementptr inbounds %struct.Token, ptr %tok, i64 0, i32 1
  %0 = load ptr, ptr %next, align 8
  %1 = load i32, ptr getelementptr inbounds (%struct.HashMap, ptr @is_typename.map, i64 0, i32 1), align 8
  %cmp.i = icmp eq i32 %1, 0
  br i1 %cmp.i, label %for.body.i, label %if.end.i

for.body.i:                                       ; preds = %land.lhs.true, %for.body.i
  %indvars.iv.i = phi i64 [ %indvars.iv.next.i, %for.body.i ], [ 0, %land.lhs.true ]
  %arrayidx.i = getelementptr inbounds [30 x ptr], ptr @is_typename.kw, i64 0, i64 %indvars.iv.i
  %2 = load ptr, ptr %arrayidx.i, align 8
  tail call void @hashmap_put(ptr noundef nonnull @is_typename.map, ptr noundef %2, ptr noundef nonnull inttoptr (i64 1 to ptr)) #13
  %indvars.iv.next.i = add nuw nsw i64 %indvars.iv.i, 1
  %exitcond.not.i = icmp eq i64 %indvars.iv.next.i, 30
  br i1 %exitcond.not.i, label %if.end.i, label %for.body.i, !llvm.loop !13

if.end.i:                                         ; preds = %for.body.i, %land.lhs.true
  %loc.i = getelementptr inbounds %struct.Token, ptr %0, i64 0, i32 4
  %3 = load ptr, ptr %loc.i, align 16
  %len.i = getelementptr inbounds %struct.Token, ptr %0, i64 0, i32 5
  %4 = load i32, ptr %len.i, align 8
  %call.i = tail call ptr @hashmap_get2(ptr noundef nonnull @is_typename.map, ptr noundef %3, i32 noundef %4) #13
  %tobool.not.i = icmp eq ptr %call.i, null
  br i1 %tobool.not.i, label %lor.rhs.i, label %if.then

lor.rhs.i:                                        ; preds = %if.end.i
  %5 = load i32, ptr %0, align 16
  %cmp.i.i = icmp eq i32 %5, 0
  br i1 %cmp.i.i, label %for.cond.i.i.i, label %if.end11

for.cond.i.i.i:                                   ; preds = %lor.rhs.i, %for.body.i.i.i
  %sc.0.in.i.i.i = phi ptr [ %sc.0.i.i.i, %for.body.i.i.i ], [ @scope, %lor.rhs.i ]
  %sc.0.i.i.i = load ptr, ptr %sc.0.in.i.i.i, align 8
  %tobool.not.i.i.i = icmp eq ptr %sc.0.i.i.i, null
  br i1 %tobool.not.i.i.i, label %if.end11, label %for.body.i.i.i

for.body.i.i.i:                                   ; preds = %for.cond.i.i.i
  %vars.i.i.i = getelementptr inbounds %struct.Scope, ptr %sc.0.i.i.i, i64 0, i32 1
  %6 = load ptr, ptr %loc.i, align 16
  %7 = load i32, ptr %len.i, align 8
  %call.i.i.i = tail call ptr @hashmap_get2(ptr noundef nonnull %vars.i.i.i, ptr noundef %6, i32 noundef %7) #13
  %tobool1.not.i.i.i = icmp eq ptr %call.i.i.i, null
  br i1 %tobool1.not.i.i.i, label %for.cond.i.i.i, label %is_typename.exit, !llvm.loop !14

is_typename.exit:                                 ; preds = %for.body.i.i.i
  %type_def.i.i = getelementptr inbounds %struct.VarScope, ptr %call.i.i.i, i64 0, i32 1
  %8 = load ptr, ptr %type_def.i.i, align 8
  %.not = icmp eq ptr %8, null
  br i1 %.not, label %if.end11, label %if.then

if.then:                                          ; preds = %if.end.i, %is_typename.exit
  %9 = load ptr, ptr %next, align 8
  call void @llvm.lifetime.start.p0(i64 8, ptr nonnull %tok.addr.i)
  store ptr %9, ptr %tok.addr.i, align 8
  %call.i5 = call fastcc ptr @declspec(ptr noundef nonnull %tok.addr.i, ptr noundef %9, ptr noundef null)
  %10 = load ptr, ptr %tok.addr.i, align 8
  %call1.i = call fastcc ptr @abstract_declarator(ptr noundef nonnull %tok.addr, ptr noundef %10, ptr noundef %call.i5)
  call void @llvm.lifetime.end.p0(i64 8, ptr nonnull %tok.addr.i)
  %11 = load ptr, ptr %tok.addr, align 8
  %call4 = call ptr @skip(ptr noundef %11, ptr noundef nonnull @.str.24) #13
  store ptr %call4, ptr %tok.addr, align 8
  %call5 = call zeroext i1 @equal(ptr noundef %call4, ptr noundef nonnull @.str.25) #13
  br i1 %call5, label %if.then6, label %if.end

if.then6:                                         ; preds = %if.then
  %call7 = call fastcc ptr @unary(ptr noundef %rest, ptr noundef nonnull %tok)
  br label %return

if.end:                                           ; preds = %if.then
  %12 = load ptr, ptr %tok.addr, align 8
  %call8 = call fastcc ptr @cast(ptr noundef %rest, ptr noundef %12)
  call void @add_type(ptr noundef %call8) #13
  %call.i6 = call noalias dereferenceable_or_null(288) ptr @calloc(i64 noundef 1, i64 noundef 288) #14
  store i32 43, ptr %call.i6, align 16
  %tok1.i = getelementptr inbounds %struct.Node, ptr %call.i6, i64 0, i32 3
  %lhs.i = getelementptr inbounds %struct.Node, ptr %call.i6, i64 0, i32 4
  store ptr %call8, ptr %lhs.i, align 16
  %call2.i = call ptr @copy_type(ptr noundef %call1.i) #13
  %ty3.i = getelementptr inbounds %struct.Node, ptr %call.i6, i64 0, i32 2
  store ptr %call2.i, ptr %ty3.i, align 16
  store ptr %tok, ptr %tok1.i, align 8
  br label %return

if.end11:                                         ; preds = %for.cond.i.i.i, %lor.rhs.i, %is_typename.exit, %entry
  %call12 = tail call fastcc ptr @unary(ptr noundef %rest, ptr noundef %tok)
  br label %return

return:                                           ; preds = %if.end11, %if.end, %if.then6
  %retval.0 = phi ptr [ %call7, %if.then6 ], [ %call.i6, %if.end ], [ %call12, %if.end11 ]
  ret ptr %retval.0
}